target datalayout = "e-m:e-p270:32:32-p271:32:32-p272:64:64-i64:64-i128:128-f80:128-n8:16:32:64-S128"
target triple = "x86_64-pc-linux-gnu"

@.str.14 = private unnamed_addr constant [32 x i8] c"../openssl/crypto/pem/pem_all.c\00", align 1
@__func__.PEM_read_DHparams = private unnamed_addr constant [18 x i8] c"PEM_read_DHparams\00", align 1

; Function Attrs: nounwind uwtable
define ptr @PEM_read_DHparams(ptr noundef %0, ptr noundef %1, ptr noundef %2, ptr noundef %3) #0 {
  %5 = alloca ptr, align 8
  %6 = alloca ptr, align 8
  %7 = alloca ptr, align 8
  %8 = alloca ptr, align 8
  %9 = alloca ptr, align 8
  %10 = alloca ptr, align 8
  %11 = alloca ptr, align 8
  %12 = alloca i32, align 4
  store ptr %0, ptr %6, align 8, !tbaa !11
  store ptr %1, ptr %7, align 8, !tbaa !57
  store ptr %2, ptr %8, align 8, !tbaa !10
  store ptr %3, ptr %9, align 8, !tbaa !10
  call void @llvm.lifetime.start.p0(i64 8, ptr %10) #4
  call void @llvm.lifetime.start.p0(i64 8, ptr %11) #4
  %13 = call ptr @BIO_s_file()
  %14 = call ptr @BIO_new(ptr noundef %13)
  store ptr %14, ptr %10, align 8, !tbaa !3
  %15 = icmp eq ptr %14, null
  br i1 %15, label %16, label %17

16:                                               ; preds = %4
  call void @ERR_new()
  call void @ERR_set_debug(ptr noundef @.str.14, i32 noundef 215, ptr noundef @__func__.PEM_read_DHparams)
  call void (i32, i32, ptr, ...) @ERR_set_error(i32 noundef 9, i32 noundef 524295, ptr noundef null)
  store ptr null, ptr %5, align 8
  store i32 1, ptr %12, align 4
  br label %29

17:                                               ; preds = %4
  %18 = load ptr, ptr %10, align 8, !tbaa !3
  %19 = load ptr, ptr %6, align 8, !tbaa !11
  %20 = call i64 @BIO_ctrl(ptr noundef %18, i32 noundef 106, i64 noundef 0, ptr noundef %19)
  %21 = load ptr, ptr %10, align 8, !tbaa !3
  %22 = load ptr, ptr %7, align 8, !tbaa !57
  %23 = load ptr, ptr %8, align 8, !tbaa !10
  %24 = load ptr, ptr %9, align 8, !tbaa !10
  %25 = call ptr @PEM_read_bio_DHparams(ptr noundef %21, ptr noundef %22, ptr noundef %23, ptr noundef %24)
  store ptr %25, ptr %11, align 8, !tbaa !55
  %26 = load ptr, ptr %10, align 8, !tbaa !3
  %27 = call i32 @BIO_free(ptr noundef %26)
  %28 = load ptr, ptr %11, align 8, !tbaa !55
  store ptr %28, ptr %5, align 8
  store i32 1, ptr %12, align 4
  br label %29

29:                                               ; preds = %17, %16
  call void @llvm.lifetime.end.p0(i64 8, ptr %11) #4
  call void @llvm.lifetime.end.p0(i64 8, ptr %10) #4
  %30 = load ptr, ptr %5, align 8
  ret ptr %30
}